target datalayout = "e-m:e-p270:32:32-p271:32:32-p272:64:64-i64:64-i128:128-f80:128-n8:16:32:64-S128"
target triple = "x86_64-pc-linux-gnu"

%"class.cv::Matx" = type { [3 x float] }
%"class.cv::Point3_" = type { float, float, float }

; Function Attrs: inlinehint mustprogress nounwind uwtable
define linkonce_odr hidden noundef nonnull align 4 dereferenceable(4) ptr @_ZNK2cv3VecIfLi3EEixEi(ptr noundef nonnull align 4 dereferenceable(12) %0, i32 noundef %1) #11 comdat align 2 {
  %3 = alloca ptr, align 8
  %4 = alloca i32, align 4
  store ptr %0, ptr %3, align 8, !tbaa !3
  store i32 %1, ptr %4, align 4, !tbaa !10
  %5 = load ptr, ptr %3, align 8
  %6 = getelementptr inbounds nuw %"class.cv::Matx", ptr %5, i32 0, i32 0
  %7 = load i32, ptr %4, align 4, !tbaa !10
  %8 = sext i32 %7 to i64
  %9 = getelementptr inbounds [3 x float], ptr %6, i64 0, i64 %8
  ret ptr %9
}

; Function Attrs: inlinehint mustprogress uwtable
define internal void @_ZN2cv4rgbdL21calcICPEquationCoeffsEPdRKNS_7Point3_IfEERKNS_3VecIfLi3EEE(ptr noundef %0, ptr noundef nonnull align 4 dereferenceable(12) %1, ptr noundef nonnull align 4 dereferenceable(12) %2) #4 {
  %4 = alloca ptr, align 8
  %5 = alloca ptr, align 8
  %6 = alloca ptr, align 8
  store ptr %0, ptr %4, align 8, !tbaa !289
  store ptr %1, ptr %5, align 8, !tbaa !161
  store ptr %2, ptr %6, align 8, !tbaa !3
  %7 = load ptr, ptr %5, align 8, !tbaa !161
  %8 = getelementptr inbounds nuw %"class.cv::Point3_", ptr %7, i32 0, i32 2
  %9 = load float, ptr %8, align 4, !tbaa !211
  %10 = fneg float %9
  %11 = load ptr, ptr %6, align 8, !tbaa !3
  %12 = call noundef nonnull align 4 dereferenceable(4) ptr @_ZNK2cv3VecIfLi3EEixEi(ptr noundef nonnull align 4 dereferenceable(12) %11, i32 noundef 1)
  %13 = load float, ptr %12, align 4, !tbaa !8
  %14 = load ptr, ptr %5, align 8, !tbaa !161
  %15 = getelementptr inbounds nuw %"class.cv::Point3_", ptr %14, i32 0, i32 1
  %16 = load float, ptr %15, align 4, !tbaa !292
  %17 = load ptr, ptr %6, align 8, !tbaa !3
  %18 = call noundef nonnull align 4 dereferenceable(4) ptr @_ZNK2cv3VecIfLi3EEixEi(ptr noundef nonnull align 4 dereferenceable(12) %17, i32 noundef 2)
  %19 = load float, ptr %18, align 4, !tbaa !8
  %20 = fmul float %16, %19
  %21 = call float @llvm.fmuladd.f32(float %10, float %13, float %20)
  %22 = fpext float %21 to double
  %23 = load ptr, ptr %4, align 8, !tbaa !289
  %24 = getelementptr inbounds double, ptr %23, i64 0
  store double %22, ptr %24, align 8, !tbaa !117
  %25 = load ptr, ptr %5, align 8, !tbaa !161
  %26 = getelementptr inbounds nuw %"class.cv::Point3_", ptr %25, i32 0, i32 2
  %27 = load float, ptr %26, align 4, !tbaa !211
  %28 = load ptr, ptr %6, align 8, !tbaa !3
  %29 = call noundef nonnull align 4 dereferenceable(4) ptr @_ZNK2cv3VecIfLi3EEixEi(ptr noundef nonnull align 4 dereferenceable(12) %28, i32 noundef 0)
  %30 = load float, ptr %29, align 4, !tbaa !8
  %31 = load ptr, ptr %5, align 8, !tbaa !161
  %32 = getelementptr inbounds nuw %"class.cv::Point3_", ptr %31, i32 0, i32 0
  %33 = load float, ptr %32, align 4, !tbaa !291
  %34 = load ptr, ptr %6, align 8, !tbaa !3
  %35 = call noundef nonnull align 4 dereferenceable(4) ptr @_ZNK2cv3VecIfLi3EEixEi(ptr noundef nonnull align 4 dereferenceable(12) %34, i32 noundef 2)
  %36 = load float, ptr %35, align 4, !tbaa !8
  %37 = fmul float %33, %36
  %38 = fneg float %37
  %39 = call float @llvm.fmuladd.f32(float %27, float %30, float %38)
  %40 = fpext float %39 to double
  %41 = load ptr, ptr %4, align 8, !tbaa !289
  %42 = getelementptr inbounds double, ptr %41, i64 1
  store double %40, ptr %42, align 8, !tbaa !117
  %43 = load ptr, ptr %5, align 8, !tbaa !161
  %44 = getelementptr inbounds nuw %"class.cv::Point3_", ptr %43, i32 0, i32 1
  %45 = load float, ptr %44, align 4, !tbaa !292
  %46 = fneg float %45
  %47 = load ptr, ptr %6, align 8, !tbaa !3
  %48 = call noundef nonnull align 4 dereferenceable(4) ptr @_ZNK2cv3VecIfLi3EEixEi(ptr noundef nonnull align 4 dereferenceable(12) %47, i32 noundef 0)
  %49 = load float, ptr %48, align 4, !tbaa !8
  %50 = load ptr, ptr %5, align 8, !tbaa !161
  %51 = getelementptr inbounds nuw %"class.cv::Point3_", ptr %50, i32 0, i32 0
  %52 = load float, ptr %51, align 4, !tbaa !291
  %53 = load ptr, ptr %6, align 8, !tbaa !3
  %54 = call noundef nonnull align 4 dereferenceable(4) ptr @_ZNK2cv3VecIfLi3EEixEi(ptr noundef nonnull align 4 dereferenceable(12) %53, i32 noundef 1)
  %55 = load float, ptr %54, align 4, !tbaa !8
  %56 = fmul float %52, %55
  %57 = call float @llvm.fmuladd.f32(float %46, float %49, float %56)
  %58 = fpext float %57 to double
  %59 = load ptr, ptr %4, align 8, !tbaa !289
  %60 = getelementptr inbounds double, ptr %59, i64 2
  store double %58, ptr %60, align 8, !tbaa !117
  %61 = load ptr, ptr %6, align 8, !tbaa !3
  %62 = call noundef nonnull align 4 dereferenceable(4) ptr @_ZNK2cv3VecIfLi3EEixEi(ptr noundef nonnull align 4 dereferenceable(12) %61, i32 noundef 0)
  %63 = load float, ptr %62, align 4, !tbaa !8
  %64 = fpext float %63 to double
  %65 = load ptr, ptr %4, align 8, !tbaa !289
  %66 = getelementptr inbounds double, ptr %65, i64 3
  store double %64, ptr %66, align 8, !tbaa !117
  %67 = load ptr, ptr %6, align 8, !tbaa !3
  %68 = call noundef nonnull align 4 dereferenceable(4) ptr @_ZNK2cv3VecIfLi3EEixEi(ptr noundef nonnull align 4 dereferenceable(12) %67, i32 noundef 1)
  %69 = load float, ptr %68, align 4, !tbaa !8
  %70 = fpext float %69 to double
  %71 = load ptr, ptr %4, align 8, !tbaa !289
  %72 = getelementptr inbounds double, ptr %71, i64 4
  store double %70, ptr %72, align 8, !tbaa !117
  %73 = load ptr, ptr %6, align 8, !tbaa !3
  %74 = call noundef nonnull align 4 dereferenceable(4) ptr @_ZNK2cv3VecIfLi3EEixEi(ptr noundef nonnull align 4 dereferenceable(12) %73, i32 noundef 2)
  %75 = load float, ptr %74, align 4, !tbaa !8
  %76 = fpext float %75 to double
  %77 = load ptr, ptr %4, align 8, !tbaa !289
  %78 = getelementptr inbounds double, ptr %77, i64 5
  store double %76, ptr %78, align 8, !tbaa !117
  ret void
}